target datalayout = "e-m:e-p270:32:32-p271:32:32-p272:64:64-i64:64-i128:128-f80:128-n8:16:32:64-S128"
target triple = "x86_64-pc-linux-gnu"

%struct.ForEachState = type { ptr, i32 }
%struct.PlannerInfo = type { i32, ptr, ptr, i32, ptr, ptr, ptr, ptr, i32, ptr, ptr, ptr, ptr, ptr, ptr, ptr, ptr, i32, ptr, ptr, ptr, ptr, ptr, i8, ptr, ptr, ptr, ptr, ptr, i32, ptr, ptr, ptr, ptr, ptr, ptr, ptr, i32, ptr, ptr, ptr, i32, ptr, ptr, ptr, ptr, ptr, ptr, [8 x ptr], [8 x ptr], ptr, ptr, ptr, ptr, ptr, ptr, ptr, double, double, double, i32, i8, i8, i8, i8, i8, i8, i8, i32, ptr, ptr, i32, i8, i8, i32, ptr, ptr, ptr, ptr, ptr, ptr, i8, ptr }
%struct.Node = type { i32 }
%struct.List = type { i32, i32, i32, ptr, [0 x %union.ListCell] }
%union.ListCell = type { ptr }
%struct.MinMaxAggInfo = type { i32, i32, i32, ptr, ptr, ptr, double, ptr }
%struct.AggInfo = type { i32, ptr, i32, i8, i32 }
%struct.Aggref = type { %struct.Expr, i32, i32, i32, i32, i32, ptr, ptr, ptr, ptr, ptr, ptr, i8, i8, i8, i8, i32, i32, i32, i32, i32 }
%struct.Expr = type { i32 }
%struct.TargetEntry = type { %struct.Expr, ptr, i16, ptr, i32, i32, i16, i8 }
%struct.FormData_pg_aggregate = type { i32, i8, i16, i32, i32, i32, i32, i32, i32, i32, i32, i8, i8, i8, i8, i32, i32, i32, i32, i32 }
%struct.HeapTupleData = type { i32, %struct.ItemPointerData, i32, ptr }
%struct.ItemPointerData = type { %struct.BlockIdData, i16 }
%struct.BlockIdData = type { i16, i16 }
%struct.HeapTupleHeaderData = type { %union.anon, %struct.ItemPointerData, i16, i16, i8, [0 x i8] }
%union.anon = type { %struct.HeapTupleFields }
%struct.HeapTupleFields = type { i32, i32, %union.anon.0 }
%union.anon.0 = type { i32 }

; Function Attrs: inlinehint nounwind uwtable
define internal ptr @GETSTRUCT(ptr noundef %0) #2 {
  %2 = alloca ptr, align 8
  store ptr %0, ptr %2, align 8
  %3 = load ptr, ptr %2, align 8
  %4 = getelementptr inbounds nuw %struct.HeapTupleData, ptr %3, i32 0, i32 3
  %5 = load ptr, ptr %4, align 8
  %6 = load ptr, ptr %2, align 8
  %7 = getelementptr inbounds nuw %struct.HeapTupleData, ptr %6, i32 0, i32 3
  %8 = load ptr, ptr %7, align 8
  %9 = getelementptr inbounds nuw %struct.HeapTupleHeaderData, ptr %8, i32 0, i32 4
  %10 = load i8, ptr %9, align 2
  %11 = zext i8 %10 to i32
  %12 = sext i32 %11 to i64
  %13 = getelementptr inbounds i8, ptr %5, i64 %12
  ret ptr %13
}

; Function Attrs: inlinehint nounwind uwtable
define internal i64 @ObjectIdGetDatum(i32 noundef %0) #2 {
  %2 = alloca i32, align 4
  store i32 %0, ptr %2, align 4
  %3 = load i32, ptr %2, align 4
  %4 = zext i32 %3 to i64
  ret i64 %4
}

; Function Attrs: inlinehint nounwind uwtable
define internal ptr @newNode(i64 noundef %0, i32 noundef %1) #2 {
  %3 = alloca i64, align 8
  %4 = alloca i32, align 4
  %5 = alloca ptr, align 8
  store i64 %0, ptr %3, align 8
  store i32 %1, ptr %4, align 4
  call void @llvm.lifetime.start.p0(i64 8, ptr %5) #8
  %6 = load i64, ptr %3, align 8
  %7 = call ptr @palloc0(i64 noundef %6)
  store ptr %7, ptr %5, align 8
  %8 = load i32, ptr %4, align 4
  %9 = load ptr, ptr %5, align 8
  %10 = getelementptr inbounds nuw %struct.Node, ptr %9, i32 0, i32 0
  store i32 %8, ptr %10, align 4
  %11 = load ptr, ptr %5, align 8
  call void @llvm.lifetime.end.p0(i64 8, ptr %5) #8
  ret ptr %11
}

; Function Attrs: nounwind uwtable
define internal i32 @fetch_agg_sort_op(i32 noundef %0) #0 {
  %2 = alloca i32, align 4
  %3 = alloca i32, align 4
  %4 = alloca ptr, align 8
  %5 = alloca ptr, align 8
  %6 = alloca i32, align 4
  %7 = alloca i32, align 4
  store i32 %0, ptr %3, align 4
  call void @llvm.lifetime.start.p0(i64 8, ptr %4) #8
  call void @llvm.lifetime.start.p0(i64 8, ptr %5) #8
  call void @llvm.lifetime.start.p0(i64 4, ptr %6) #8
  %8 = load i32, ptr %3, align 4
  %9 = call i64 @ObjectIdGetDatum(i32 noundef %8)
  %10 = call ptr @SearchSysCache1(i32 noundef 0, i64 noundef %9)
  store ptr %10, ptr %4, align 8
  %11 = load ptr, ptr %4, align 8
  %12 = icmp ne ptr %11, null
  br i1 %12, label %14, label %13

13:                                               ; preds = %1
  store i32 0, ptr %2, align 4
  store i32 1, ptr %7, align 4
  br label %22

14:                                               ; preds = %1
  %15 = load ptr, ptr %4, align 8
  %16 = call ptr @GETSTRUCT(ptr noundef %15)
  store ptr %16, ptr %5, align 8
  %17 = load ptr, ptr %5, align 8
  %18 = getelementptr inbounds nuw %struct.FormData_pg_aggregate, ptr %17, i32 0, i32 15
  %19 = load i32, ptr %18, align 4
  store i32 %19, ptr %6, align 4
  %20 = load ptr, ptr %4, align 8
  call void @ReleaseSysCache(ptr noundef %20)
  %21 = load i32, ptr %6, align 4
  store i32 %21, ptr %2, align 4
  store i32 1, ptr %7, align 4
  br label %22

22:                                               ; preds = %14, %13
  call void @llvm.lifetime.end.p0(i64 4, ptr %6) #8
  call void @llvm.lifetime.end.p0(i64 8, ptr %5) #8
  call void @llvm.lifetime.end.p0(i64 8, ptr %4) #8
  %23 = load i32, ptr %2, align 4
  ret i32 %23
}

; Function Attrs: inlinehint nounwind uwtable
define internal i32 @list_length(ptr noundef %0) #2 {
  %2 = alloca ptr, align 8
  store ptr %0, ptr %2, align 8
  %3 = load ptr, ptr %2, align 8
  %4 = icmp ne ptr %3, null
  br i1 %4, label %5, label %9

5:                                                ; preds = %1
  %6 = load ptr, ptr %2, align 8
  %7 = getelementptr inbounds nuw %struct.List, ptr %6, i32 0, i32 1
  %8 = load i32, ptr %7, align 4
  br label %10

9:                                                ; preds = %1
  br label %10

10:                                               ; preds = %9, %5
  %11 = phi i32 [ %8, %5 ], [ 0, %9 ]
  ret i32 %11
}

; Function Attrs: inlinehint nounwind uwtable
define internal ptr @list_nth_cell(ptr noundef %0, i32 noundef %1) #2 {
  %3 = alloca ptr, align 8
  %4 = alloca i32, align 4
  store ptr %0, ptr %3, align 8
  store i32 %1, ptr %4, align 4
  %5 = load ptr, ptr %3, align 8
  %6 = getelementptr inbounds nuw %struct.List, ptr %5, i32 0, i32 3
  %7 = load ptr, ptr %6, align 8
  %8 = load i32, ptr %4, align 4
  %9 = sext i32 %8 to i64
  %10 = getelementptr inbounds %union.ListCell, ptr %7, i64 %9
  ret ptr %10
}

; Function Attrs: nounwind uwtable
define internal zeroext i1 @can_minmax_aggs(ptr noundef %0, ptr noundef %1) #0 {
  %3 = alloca i1, align 1
  %4 = alloca ptr, align 8
  %5 = alloca ptr, align 8
  %6 = alloca ptr, align 8
  %7 = alloca %struct.ForEachState, align 8
  %8 = alloca i32, align 4
  %9 = alloca ptr, align 8
  %10 = alloca ptr, align 8
  %11 = alloca i32, align 4
  %12 = alloca ptr, align 8
  %13 = alloca ptr, align 8
  store ptr %0, ptr %4, align 8
  store ptr %1, ptr %5, align 8
  call void @llvm.lifetime.start.p0(i64 8, ptr %6) #8
  call void @llvm.lifetime.start.p0(i64 16, ptr %7) #8
  %14 = getelementptr inbounds nuw %struct.ForEachState, ptr %7, i32 0, i32 0
  %15 = load ptr, ptr %4, align 8
  %16 = getelementptr inbounds nuw %struct.PlannerInfo, ptr %15, i32 0, i32 69
  %17 = load ptr, ptr %16, align 8
  store ptr %17, ptr %14, align 8
  %18 = getelementptr inbounds nuw %struct.ForEachState, ptr %7, i32 0, i32 1
  store i32 0, ptr %18, align 8
  %19 = getelementptr i8, ptr %7, i64 12
  call void @llvm.memset.p0.i64(ptr align 4 %19, i8 0, i64 4, i1 false)
  br label %20

20:                                               ; preds = %129, %2
  %21 = getelementptr inbounds nuw %struct.ForEachState, ptr %7, i32 0, i32 0
  %22 = load ptr, ptr %21, align 8
  %23 = icmp ne ptr %22, null
  br i1 %23, label %24, label %41

24:                                               ; preds = %20
  %25 = getelementptr inbounds nuw %struct.ForEachState, ptr %7, i32 0, i32 1
  %26 = load i32, ptr %25, align 8
  %27 = getelementptr inbounds nuw %struct.ForEachState, ptr %7, i32 0, i32 0
  %28 = load ptr, ptr %27, align 8
  %29 = getelementptr inbounds nuw %struct.List, ptr %28, i32 0, i32 1
  %30 = load i32, ptr %29, align 4
  %31 = icmp slt i32 %26, %30
  br i1 %31, label %32, label %41

32:                                               ; preds = %24
  %33 = getelementptr inbounds nuw %struct.ForEachState, ptr %7, i32 0, i32 0
  %34 = load ptr, ptr %33, align 8
  %35 = getelementptr inbounds nuw %struct.List, ptr %34, i32 0, i32 3
  %36 = load ptr, ptr %35, align 8
  %37 = getelementptr inbounds nuw %struct.ForEachState, ptr %7, i32 0, i32 1
  %38 = load i32, ptr %37, align 8
  %39 = sext i32 %38 to i64
  %40 = getelementptr inbounds %union.ListCell, ptr %36, i64 %39
  store ptr %40, ptr %6, align 8
  br label %42

41:                                               ; preds = %24, %20
  store ptr null, ptr %6, align 8
  br label %42

42:                                               ; preds = %41, %32
  %43 = phi i32 [ 1, %32 ], [ 0, %41 ]
  %44 = icmp ne i32 %43, 0
  br i1 %44, label %46, label %45

45:                                               ; preds = %42
  store i32 2, ptr %8, align 4
  br label %133

46:                                               ; preds = %42
  call void @llvm.lifetime.start.p0(i64 8, ptr %9) #8
  %47 = load ptr, ptr %6, align 8
  %48 = load ptr, ptr %47, align 8
  store ptr %48, ptr %9, align 8
  call void @llvm.lifetime.start.p0(i64 8, ptr %10) #8
  %49 = load ptr, ptr %9, align 8
  %50 = getelementptr inbounds nuw %struct.AggInfo, ptr %49, i32 0, i32 1
  %51 = load ptr, ptr %50, align 8
  %52 = call ptr @list_nth_cell(ptr noundef %51, i32 noundef 0)
  %53 = load ptr, ptr %52, align 8
  store ptr %53, ptr %10, align 8
  call void @llvm.lifetime.start.p0(i64 4, ptr %11) #8
  call void @llvm.lifetime.start.p0(i64 8, ptr %12) #8
  call void @llvm.lifetime.start.p0(i64 8, ptr %13) #8
  %54 = load ptr, ptr %10, align 8
  %55 = getelementptr inbounds nuw %struct.Aggref, ptr %54, i32 0, i32 8
  %56 = load ptr, ptr %55, align 8
  %57 = call i32 @list_length(ptr noundef %56)
  %58 = icmp ne i32 %57, 1
  br i1 %58, label %59, label %60

59:                                               ; preds = %46
  store i1 false, ptr %3, align 1
  store i32 1, ptr %8, align 4
  br label %126

60:                                               ; preds = %46
  %61 = load ptr, ptr %10, align 8
  %62 = getelementptr inbounds nuw %struct.Aggref, ptr %61, i32 0, i32 9
  %63 = load ptr, ptr %62, align 8
  %64 = icmp ne ptr %63, null
  br i1 %64, label %65, label %66

65:                                               ; preds = %60
  store i1 false, ptr %3, align 1
  store i32 1, ptr %8, align 4
  br label %126

66:                                               ; preds = %60
  %67 = load ptr, ptr %10, align 8
  %68 = getelementptr inbounds nuw %struct.Aggref, ptr %67, i32 0, i32 11
  %69 = load ptr, ptr %68, align 8
  %70 = icmp ne ptr %69, null
  br i1 %70, label %71, label %72

71:                                               ; preds = %66
  store i1 false, ptr %3, align 1
  store i32 1, ptr %8, align 4
  br label %126

72:                                               ; preds = %66
  %73 = load ptr, ptr %10, align 8
  %74 = getelementptr inbounds nuw %struct.Aggref, ptr %73, i32 0, i32 1
  %75 = load i32, ptr %74, align 4
  %76 = call i32 @fetch_agg_sort_op(i32 noundef %75)
  store i32 %76, ptr %11, align 4
  %77 = load i32, ptr %11, align 4
  %78 = icmp ne i32 %77, 0
  br i1 %78, label %80, label %79

79:                                               ; preds = %72
  store i1 false, ptr %3, align 1
  store i32 1, ptr %8, align 4
  br label %126

80:                                               ; preds = %72
  %81 = load ptr, ptr %10, align 8
  %82 = getelementptr inbounds nuw %struct.Aggref, ptr %81, i32 0, i32 8
  %83 = load ptr, ptr %82, align 8
  %84 = call ptr @list_nth_cell(ptr noundef %83, i32 noundef 0)
  %85 = load ptr, ptr %84, align 8
  store ptr %85, ptr %12, align 8
  %86 = load ptr, ptr %12, align 8
  %87 = getelementptr inbounds nuw %struct.TargetEntry, ptr %86, i32 0, i32 1
  %88 = load ptr, ptr %87, align 8
  %89 = call zeroext i1 @contain_mutable_functions(ptr noundef %88)
  br i1 %89, label %90, label %91

90:                                               ; preds = %80
  store i1 false, ptr %3, align 1
  store i32 1, ptr %8, align 4
  br label %126

91:                                               ; preds = %80
  %92 = load ptr, ptr %12, align 8
  %93 = getelementptr inbounds nuw %struct.TargetEntry, ptr %92, i32 0, i32 1
  %94 = load ptr, ptr %93, align 8
  %95 = call i32 @exprType(ptr noundef %94)
  %96 = call zeroext i1 @type_is_rowtype(i32 noundef %95)
  br i1 %96, label %97, label %98

97:                                               ; preds = %91
  store i1 false, ptr %3, align 1
  store i32 1, ptr %8, align 4
  br label %126

98:                                               ; preds = %91
  %99 = call ptr @newNode(i64 noundef 56, i32 noundef 324)
  store ptr %99, ptr %13, align 8
  %100 = load ptr, ptr %10, align 8
  %101 = getelementptr inbounds nuw %struct.Aggref, ptr %100, i32 0, i32 1
  %102 = load i32, ptr %101, align 4
  %103 = load ptr, ptr %13, align 8
  %104 = getelementptr inbounds nuw %struct.MinMaxAggInfo, ptr %103, i32 0, i32 1
  store i32 %102, ptr %104, align 4
  %105 = load i32, ptr %11, align 4
  %106 = load ptr, ptr %13, align 8
  %107 = getelementptr inbounds nuw %struct.MinMaxAggInfo, ptr %106, i32 0, i32 2
  store i32 %105, ptr %107, align 8
  %108 = load ptr, ptr %12, align 8
  %109 = getelementptr inbounds nuw %struct.TargetEntry, ptr %108, i32 0, i32 1
  %110 = load ptr, ptr %109, align 8
  %111 = load ptr, ptr %13, align 8
  %112 = getelementptr inbounds nuw %struct.MinMaxAggInfo, ptr %111, i32 0, i32 3
  store ptr %110, ptr %112, align 8
  %113 = load ptr, ptr %13, align 8
  %114 = getelementptr inbounds nuw %struct.MinMaxAggInfo, ptr %113, i32 0, i32 4
  store ptr null, ptr %114, align 8
  %115 = load ptr, ptr %13, align 8
  %116 = getelementptr inbounds nuw %struct.MinMaxAggInfo, ptr %115, i32 0, i32 5
  store ptr null, ptr %116, align 8
  %117 = load ptr, ptr %13, align 8
  %118 = getelementptr inbounds nuw %struct.MinMaxAggInfo, ptr %117, i32 0, i32 6
  store double 0.000000e+00, ptr %118, align 8
  %119 = load ptr, ptr %13, align 8
  %120 = getelementptr inbounds nuw %struct.MinMaxAggInfo, ptr %119, i32 0, i32 7
  store ptr null, ptr %120, align 8
  %121 = load ptr, ptr %5, align 8
  %122 = load ptr, ptr %121, align 8
  %123 = load ptr, ptr %13, align 8
  %124 = call ptr @lappend(ptr noundef %122, ptr noundef %123)
  %125 = load ptr, ptr %5, align 8
  store ptr %124, ptr %125, align 8
  store i32 0, ptr %8, align 4
  br label %126

126:                                              ; preds = %98, %97, %90, %79, %71, %65, %59
  call void @llvm.lifetime.end.p0(i64 8, ptr %13) #8
  call void @llvm.lifetime.end.p0(i64 8, ptr %12) #8
  call void @llvm.lifetime.end.p0(i64 4, ptr %11) #8
  call void @llvm.lifetime.end.p0(i64 8, ptr %10) #8
  call void @llvm.lifetime.end.p0(i64 8, ptr %9) #8
  %127 = load i32, ptr %8, align 4
  switch i32 %127, label %133 [
    i32 0, label %128
  ]

128:                                              ; preds = %126
  br label %129

129:                                              ; preds = %128
  %130 = getelementptr inbounds nuw %struct.ForEachState, ptr %7, i32 0, i32 1
  %131 = load i32, ptr %130, align 8
  %132 = add i32 %131, 1
  store i32 %132, ptr %130, align 8
  br label %20, !llvm.loop !10

133:                                              ; preds = %126, %45
  call void @llvm.lifetime.end.p0(i64 16, ptr %7) #8
  %134 = load i32, ptr %8, align 4
  switch i32 %134, label %136 [
    i32 2, label %135
  ]

135:                                              ; preds = %133
  store i1 true, ptr %3, align 1
  store i32 1, ptr %8, align 4
  br label %136

136:                                              ; preds = %135, %133
  call void @llvm.lifetime.end.p0(i64 8, ptr %6) #8
  %137 = load i1, ptr %3, align 1
  ret i1 %137
}