; Function Attrs: nounwind uwtable
define internal fastcc noundef zeroext i1 @can_minmax_aggs(ptr readonly captures(address_is_null) %.608.val, ptr noundef nonnull captures(none) %0) unnamed_addr #0 {
  %2 = getelementptr inbounds nuw i8, ptr %.608.val, i64 4
  %3 = getelementptr inbounds nuw i8, ptr %.608.val, i64 16
  %.not = icmp eq ptr %.608.val, null
  br i1 %.not, label %.critedge42, label %.lr.ph.preheader

.lr.ph.preheader:                                 ; preds = %1
  %4 = load i32, ptr %2, align 4
  %.not2526 = icmp sgt i32 %4, 0
  br i1 %.not2526, label %.lr.ph28, label %.critedge42

.lr.ph28:                                         ; preds = %.lr.ph.preheader, %.critedge
  %indvars.iv27 = phi i64 [ %indvars.iv.next, %.critedge ], [ 0, %.lr.ph.preheader ]
  %5 = load ptr, ptr %3, align 8
  %6 = getelementptr inbounds nuw %union.ListCell, ptr %5, i64 %indvars.iv27
  %7 = load ptr, ptr %6, align 8
  %8 = getelementptr inbounds nuw i8, ptr %7, i64 8
  %9 = load ptr, ptr %8, align 8
  %10 = getelementptr i8, ptr %9, i64 16
  %.val43 = load ptr, ptr %10, align 8
  %11 = load ptr, ptr %.val43, align 8
  %12 = getelementptr inbounds nuw i8, ptr %11, i64 40
  %13 = load ptr, ptr %12, align 8
  %.not.i = icmp eq ptr %13, null
  br i1 %.not.i, label %.critedge42, label %list_length.exit

list_length.exit:                                 ; preds = %.lr.ph28
  %14 = getelementptr inbounds nuw i8, ptr %13, i64 4
  %15 = load i32, ptr %14, align 4
  %.not37 = icmp eq i32 %15, 1
  br i1 %.not37, label %16, label %.critedge42

16:                                               ; preds = %list_length.exit
  %17 = getelementptr inbounds nuw i8, ptr %11, i64 48
  %18 = load ptr, ptr %17, align 8
  %.not38 = icmp eq ptr %18, null
  br i1 %.not38, label %19, label %.critedge42

19:                                               ; preds = %16
  %20 = getelementptr inbounds nuw i8, ptr %11, i64 64
  %21 = load ptr, ptr %20, align 8
  %.not39 = icmp eq ptr %21, null
  br i1 %.not39, label %22, label %.critedge42

22:                                               ; preds = %19
  %23 = getelementptr inbounds nuw i8, ptr %11, i64 4
  %24 = load i32, ptr %23, align 4
  %25 = zext i32 %24 to i64
  %26 = tail call ptr @SearchSysCache1(i32 noundef 0, i64 noundef %25) #8
  %.not.i44 = icmp eq ptr %26, null
  br i1 %.not.i44, label %.critedge42, label %fetch_agg_sort_op.exit

fetch_agg_sort_op.exit:                           ; preds = %22
  %27 = getelementptr i8, ptr %26, i64 16
  %.val.i = load ptr, ptr %27, align 8
  %28 = getelementptr inbounds nuw i8, ptr %.val.i, i64 22
  %29 = load i8, ptr %28, align 2
  %30 = zext i8 %29 to i64
  %31 = getelementptr inbounds nuw i8, ptr %.val.i, i64 %30
  %32 = getelementptr inbounds nuw i8, ptr %31, i64 44
  %33 = load i32, ptr %32, align 4
  tail call void @ReleaseSysCache(ptr noundef nonnull %26) #8
  %.not40 = icmp eq i32 %33, 0
  br i1 %.not40, label %.critedge42, label %34

34:                                               ; preds = %fetch_agg_sort_op.exit
  %35 = load ptr, ptr %12, align 8
  %36 = getelementptr i8, ptr %35, i64 16
  %.val = load ptr, ptr %36, align 8
  %37 = load ptr, ptr %.val, align 8
  %38 = getelementptr inbounds nuw i8, ptr %37, i64 8
  %39 = load ptr, ptr %38, align 8
  %40 = tail call zeroext i1 @contain_mutable_functions(ptr noundef %39) #8
  br i1 %40, label %.critedge42, label %41

41:                                               ; preds = %34
  %42 = load ptr, ptr %38, align 8
  %43 = tail call i32 @exprType(ptr noundef %42) #8
  %44 = tail call zeroext i1 @type_is_rowtype(i32 noundef %43) #8
  br i1 %44, label %.critedge42, label %.critedge

.critedge:                                        ; preds = %41
  %45 = tail call noundef ptr @palloc0(i64 noundef 56) #8
  store i32 324, ptr %45, align 4
  %46 = load i32, ptr %23, align 4
  %47 = getelementptr inbounds nuw i8, ptr %45, i64 4
  store i32 %46, ptr %47, align 4
  %48 = getelementptr inbounds nuw i8, ptr %45, i64 8
  store i32 %33, ptr %48, align 8
  %49 = load ptr, ptr %38, align 8
  %50 = getelementptr inbounds nuw i8, ptr %45, i64 16
  store ptr %49, ptr %50, align 8
  %51 = getelementptr inbounds nuw i8, ptr %45, i64 24
  tail call void @llvm.memset.p0.i64(ptr noundef nonnull align 8 dereferenceable(32) %51, i8 0, i64 32, i1 false)
  %52 = load ptr, ptr %0, align 8
  %53 = tail call ptr @lappend(ptr noundef %52, ptr noundef nonnull %45) #8
  store ptr %53, ptr %0, align 8
  %indvars.iv.next = add nuw nsw i64 %indvars.iv27, 1
  %54 = load i32, ptr %2, align 4
  %55 = sext i32 %54 to i64
  %.not25 = icmp slt i64 %indvars.iv.next, %55
  br i1 %.not25, label %.lr.ph28, label %.critedge42

.critedge42:                                      ; preds = %22, %.lr.ph28, %.critedge, %41, %34, %fetch_agg_sort_op.exit, %19, %16, %list_length.exit, %.lr.ph.preheader, %1
  %.not363 = phi i1 [ true, %1 ], [ true, %.lr.ph.preheader ], [ false, %list_length.exit ], [ false, %16 ], [ false, %19 ], [ false, %fetch_agg_sort_op.exit ], [ false, %34 ], [ false, %41 ], [ true, %.critedge ], [ false, %.lr.ph28 ], [ false, %22 ]
  ret i1 %.not363
}